target datalayout = "e-m:e-p270:32:32-p271:32:32-p272:64:64-i64:64-i128:128-f80:128-n8:16:32:64-S128"
target triple = "x86_64-pc-linux-gnu"

%union.pthread_mutex_t = type { %struct.__pthread_mutex_s }
%struct.__pthread_mutex_s = type { i32, i32, i32, i32, i32, i16, i16, %struct.__pthread_internal_list }
%struct.__pthread_internal_list = type { ptr, ptr }
%struct.anon.0 = type { %union.pthread_mutex_t, i32, ptr, ptr, i8 }
%struct.conmgr_callback_args_t = type { ptr, i32 }

@reconfig = internal global i8 0, align 1
@.str.43 = private unnamed_addr constant [29 x i8] c"%s: pthread_mutex_lock(): %m\00", align 1
@.str.44 = private unnamed_addr constant [31 x i8] c"%s: pthread_mutex_unlock(): %m\00", align 1
@.str.93 = private unnamed_addr constant [11 x i8] c"_on_sighup\00", align 1
@.str.105 = private unnamed_addr constant [37 x i8] c"Reconfigure signal (SIGHUP) received\00", align 1
@listeners = internal global { %union.pthread_mutex_t, i32, [4 x i8], ptr, ptr, i8, [7 x i8] } zeroinitializer, align 8

; Function Attrs: nounwind uwtable
define internal void @_on_sighup(ptr %0, i32 %1, ptr noundef %2) #0 {
  %4 = alloca %struct.conmgr_callback_args_t, align 8
  %5 = alloca ptr, align 8
  %6 = alloca i8, align 1
  %7 = alloca i32, align 4
  %8 = alloca i32, align 4
  %9 = alloca i32, align 4
  %10 = getelementptr inbounds nuw { ptr, i32 }, ptr %4, i32 0, i32 0
  store ptr %0, ptr %10, align 8
  %11 = getelementptr inbounds nuw { ptr, i32 }, ptr %4, i32 0, i32 1
  store i32 %1, ptr %11, align 8
  store ptr %2, ptr %5, align 8
  call void @llvm.lifetime.start.p0(i64 1, ptr %6) #11
  br label %12

12:                                               ; preds = %3
  br label %13

13:                                               ; preds = %12
  %14 = call i32 @get_log_level()
  %15 = icmp sge i32 %14, 3
  br i1 %15, label %16, label %17

16:                                               ; preds = %13
  call void (i32, ptr, ...) @log_var(i32 noundef 3, ptr noundef @.str.105)
  br label %17

17:                                               ; preds = %16, %13
  br label %18

18:                                               ; preds = %17
  br label %19

19:                                               ; preds = %18
  br label %20

20:                                               ; preds = %19
  br label %21

21:                                               ; preds = %20
  br label %22

22:                                               ; preds = %21
  call void @llvm.lifetime.start.p0(i64 4, ptr %7) #11
  %23 = call i32 @pthread_mutex_lock(ptr noundef @listeners) #11
  store i32 %23, ptr %7, align 4
  %24 = load i32, ptr %7, align 4
  %25 = icmp ne i32 %24, 0
  br i1 %25, label %26, label %29

26:                                               ; preds = %22
  %27 = load i32, ptr %7, align 4
  %28 = call ptr @__errno_location() #14
  store i32 %27, ptr %28, align 4
  call void (ptr, ...) @fatal_abort(ptr noundef @.str.43, ptr noundef @.str.93) #12
  unreachable

29:                                               ; preds = %22
  call void @llvm.lifetime.end.p0(i64 4, ptr %7) #11
  br label %30

30:                                               ; preds = %29
  br label %31

31:                                               ; preds = %30
  %32 = load i8, ptr getelementptr inbounds nuw (%struct.anon.0, ptr @listeners, i32 0, i32 4), align 8, !range !8, !noundef !9
  %33 = trunc i8 %32 to i1
  %34 = zext i1 %33 to i8
  store i8 %34, ptr %6, align 1
  br label %35

35:                                               ; preds = %31
  call void @llvm.lifetime.start.p0(i64 4, ptr %8) #11
  %36 = call i32 @pthread_mutex_unlock(ptr noundef @listeners) #11
  store i32 %36, ptr %8, align 4
  %37 = load i32, ptr %8, align 4
  %38 = icmp ne i32 %37, 0
  br i1 %38, label %39, label %42

39:                                               ; preds = %35
  %40 = load i32, ptr %8, align 4
  %41 = call ptr @__errno_location() #14
  store i32 %40, ptr %41, align 4
  call void (ptr, ...) @fatal_abort(ptr noundef @.str.44, ptr noundef @.str.93) #12
  unreachable

42:                                               ; preds = %35
  call void @llvm.lifetime.end.p0(i64 4, ptr %8) #11
  br label %43

43:                                               ; preds = %42
  br label %44

44:                                               ; preds = %43
  %45 = load i8, ptr %6, align 1, !range !8, !noundef !9
  %46 = trunc i8 %45 to i1
  br i1 %46, label %47, label %48

47:                                               ; preds = %44
  call void @backup_on_sighup()
  store i32 1, ptr %9, align 4
  br label %50

48:                                               ; preds = %44
  store i8 1, ptr @reconfig, align 1
  %49 = call i32 @slurmctld_shutdown()
  store i32 0, ptr %9, align 4
  br label %50

50:                                               ; preds = %48, %47
  call void @llvm.lifetime.end.p0(i64 1, ptr %6) #11
  %51 = load i32, ptr %9, align 4
  switch i32 %51, label %53 [
    i32 0, label %52
    i32 1, label %52
  ]

52:                                               ; preds = %50, %50
  ret void

53:                                               ; preds = %50
  unreachable
}