; Function Attrs: nounwind uwtable
define internal void @_on_sighup(ptr readnone captures(none) %0, i32 %1, ptr readnone captures(none) %2) #6 {
  %4 = tail call i32 @get_log_level() #19
  %5 = icmp sgt i32 %4, 2
  br i1 %5, label %6, label %7

6:                                                ; preds = %3
  tail call void (i32, ptr, ...) @log_var(i32 noundef 3, ptr noundef nonnull @.str.105) #19
  br label %7

7:                                                ; preds = %3, %6
  %8 = tail call i32 @pthread_mutex_lock(ptr noundef nonnull @listeners) #19
  %.not = icmp eq i32 %8, 0
  br i1 %.not, label %11, label %9

9:                                                ; preds = %7
  %10 = tail call ptr @__errno_location() #21
  store i32 %8, ptr %10, align 4
  tail call void (ptr, ...) @fatal_abort(ptr noundef nonnull @.str.43, ptr noundef nonnull @.str.93) #20
  unreachable

11:                                               ; preds = %7
  %12 = load i8, ptr getelementptr inbounds nuw (i8, ptr @listeners, i64 64), align 8, !range !12, !noundef !13
  %13 = tail call i32 @pthread_mutex_unlock(ptr noundef nonnull @listeners) #19
  %.not6 = icmp eq i32 %13, 0
  br i1 %.not6, label %16, label %14

14:                                               ; preds = %11
  %15 = tail call ptr @__errno_location() #21
  store i32 %13, ptr %15, align 4
  tail call void (ptr, ...) @fatal_abort(ptr noundef nonnull @.str.44, ptr noundef nonnull @.str.93) #20
  unreachable

16:                                               ; preds = %11
  %17 = trunc nuw i8 %12 to i1
  br i1 %17, label %18, label %19

18:                                               ; preds = %16
  tail call void @backup_on_sighup() #19
  br label %21

19:                                               ; preds = %16
  store i1 true, ptr @reconfig, align 1
  %20 = tail call i32 @slurmctld_shutdown()
  br label %21

21:                                               ; preds = %19, %18
  ret void
}